target datalayout = "e-m:e-p270:32:32-p271:32:32-p272:64:64-i64:64-i128:128-f80:128-n8:16:32:64-S128"
target triple = "x86_64-pc-linux-gnu"

%struct.location = type { i32, i32 }
%struct.block = type { ptr, ptr }
%struct.inst = type { ptr, ptr, i32, %struct.anon, ptr, %struct.location, ptr, ptr, i32, i32, i32, i32, %struct.block, %struct.block, ptr, i32 }
%struct.anon = type { i16, ptr, %struct.jv, ptr }
%struct.jv = type { i8, i8, i16, i32, %union.anon }
%union.anon = type { ptr }

; Function Attrs: nounwind uwtable
define internal void @block_get_unbound_vars(ptr %0, ptr %1, ptr noundef %2) #0 {
  %4 = alloca %struct.block, align 8
  %5 = alloca ptr, align 8
  %6 = alloca ptr, align 8
  %7 = alloca %struct.jv, align 8
  %8 = alloca %struct.jv, align 8
  %9 = alloca %struct.jv, align 8
  %10 = getelementptr inbounds nuw { ptr, ptr }, ptr %4, i32 0, i32 0
  store ptr %0, ptr %10, align 8
  %11 = getelementptr inbounds nuw { ptr, ptr }, ptr %4, i32 0, i32 1
  store ptr %1, ptr %11, align 8
  store ptr %2, ptr %5, align 8, !tbaa !91
  call void @llvm.lifetime.start.p0(i64 8, ptr %6) #7
  %12 = getelementptr inbounds nuw %struct.block, ptr %4, i32 0, i32 0
  %13 = load ptr, ptr %12, align 8, !tbaa !4
  store ptr %13, ptr %6, align 8, !tbaa !13
  br label %14

14:                                               ; preds = %81, %3
  %15 = load ptr, ptr %6, align 8, !tbaa !13
  %16 = icmp ne ptr %15, null
  br i1 %16, label %18, label %17

17:                                               ; preds = %14
  call void @llvm.lifetime.end.p0(i64 8, ptr %6) #7
  br label %85

18:                                               ; preds = %14
  %19 = load ptr, ptr %6, align 8, !tbaa !13
  %20 = getelementptr inbounds nuw %struct.inst, ptr %19, i32 0, i32 12
  %21 = getelementptr inbounds nuw %struct.block, ptr %20, i32 0, i32 0
  %22 = load ptr, ptr %21, align 8, !tbaa !68
  %23 = icmp ne ptr %22, null
  br i1 %23, label %24, label %32

24:                                               ; preds = %18
  %25 = load ptr, ptr %6, align 8, !tbaa !13
  %26 = getelementptr inbounds nuw %struct.inst, ptr %25, i32 0, i32 12
  %27 = load ptr, ptr %5, align 8, !tbaa !91
  %28 = getelementptr inbounds nuw { ptr, ptr }, ptr %26, i32 0, i32 0
  %29 = load ptr, ptr %28, align 8
  %30 = getelementptr inbounds nuw { ptr, ptr }, ptr %26, i32 0, i32 1
  %31 = load ptr, ptr %30, align 8
  call void @block_get_unbound_vars(ptr %29, ptr %31, ptr noundef %27)
  br label %81

32:                                               ; preds = %18
  %33 = load ptr, ptr %6, align 8, !tbaa !13
  %34 = getelementptr inbounds nuw %struct.inst, ptr %33, i32 0, i32 2
  %35 = load i32, ptr %34, align 8, !tbaa !33
  %36 = icmp eq i32 %35, 8
  br i1 %36, label %42, label %37

37:                                               ; preds = %32
  %38 = load ptr, ptr %6, align 8, !tbaa !13
  %39 = getelementptr inbounds nuw %struct.inst, ptr %38, i32 0, i32 2
  %40 = load i32, ptr %39, align 8, !tbaa !33
  %41 = icmp eq i32 %40, 41
  br i1 %41, label %42, label %80

42:                                               ; preds = %37, %32
  %43 = load ptr, ptr %6, align 8, !tbaa !13
  %44 = getelementptr inbounds nuw %struct.inst, ptr %43, i32 0, i32 6
  %45 = load ptr, ptr %44, align 8, !tbaa !35
  %46 = icmp eq ptr %45, null
  br i1 %46, label %47, label %80

47:                                               ; preds = %42
  %48 = load ptr, ptr %5, align 8, !tbaa !91
  call void @llvm.lifetime.start.p0(i64 16, ptr %7) #7
  %49 = load ptr, ptr %5, align 8, !tbaa !91
  %50 = load ptr, ptr %6, align 8, !tbaa !13
  %51 = getelementptr inbounds nuw %struct.inst, ptr %50, i32 0, i32 7
  %52 = load ptr, ptr %51, align 8, !tbaa !36
  %53 = call { i64, ptr } @jv_string(ptr noundef %52)
  %54 = getelementptr inbounds nuw { i64, ptr }, ptr %8, i32 0, i32 0
  %55 = extractvalue { i64, ptr } %53, 0
  store i64 %55, ptr %54, align 8
  %56 = getelementptr inbounds nuw { i64, ptr }, ptr %8, i32 0, i32 1
  %57 = extractvalue { i64, ptr } %53, 1
  store ptr %57, ptr %56, align 8
  %58 = call { i64, ptr } @jv_true()
  %59 = getelementptr inbounds nuw { i64, ptr }, ptr %9, i32 0, i32 0
  %60 = extractvalue { i64, ptr } %58, 0
  store i64 %60, ptr %59, align 8
  %61 = getelementptr inbounds nuw { i64, ptr }, ptr %9, i32 0, i32 1
  %62 = extractvalue { i64, ptr } %58, 1
  store ptr %62, ptr %61, align 8
  %63 = getelementptr inbounds nuw { i64, ptr }, ptr %49, i32 0, i32 0
  %64 = load i64, ptr %63, align 8
  %65 = getelementptr inbounds nuw { i64, ptr }, ptr %49, i32 0, i32 1
  %66 = load ptr, ptr %65, align 8
  %67 = getelementptr inbounds nuw { i64, ptr }, ptr %8, i32 0, i32 0
  %68 = load i64, ptr %67, align 8
  %69 = getelementptr inbounds nuw { i64, ptr }, ptr %8, i32 0, i32 1
  %70 = load ptr, ptr %69, align 8
  %71 = getelementptr inbounds nuw { i64, ptr }, ptr %9, i32 0, i32 0
  %72 = load i64, ptr %71, align 8
  %73 = getelementptr inbounds nuw { i64, ptr }, ptr %9, i32 0, i32 1
  %74 = load ptr, ptr %73, align 8
  %75 = call { i64, ptr } @jv_object_set(i64 %64, ptr %66, i64 %68, ptr %70, i64 %72, ptr %74)
  %76 = getelementptr inbounds nuw { i64, ptr }, ptr %7, i32 0, i32 0
  %77 = extractvalue { i64, ptr } %75, 0
  store i64 %77, ptr %76, align 8
  %78 = getelementptr inbounds nuw { i64, ptr }, ptr %7, i32 0, i32 1
  %79 = extractvalue { i64, ptr } %75, 1
  store ptr %79, ptr %78, align 8
  call void @llvm.memcpy.p0.p0.i64(ptr align 8 %48, ptr align 8 %7, i64 16, i1 false), !tbaa.struct !41
  call void @llvm.lifetime.end.p0(i64 16, ptr %7) #7
  br label %80

80:                                               ; preds = %47, %42, %37
  br label %81

81:                                               ; preds = %80, %24
  %82 = load ptr, ptr %6, align 8, !tbaa !13
  %83 = getelementptr inbounds nuw %struct.inst, ptr %82, i32 0, i32 0
  %84 = load ptr, ptr %83, align 8, !tbaa !28
  store ptr %84, ptr %6, align 8, !tbaa !13
  br label %14, !llvm.loop !115

85:                                               ; preds = %17
  ret void
}