; Function Attrs: nounwind uwtable
define internal fastcc void @block_get_unbound_vars(ptr readonly captures(address_is_null) %0, ptr noundef nonnull captures(none) %1) unnamed_addr #1 {
  %.not1 = icmp eq ptr %0, null
  br i1 %.not1, label %._crit_edge, label %.lr.ph

.lr.ph:                                           ; preds = %2
  %3 = getelementptr inbounds nuw i8, ptr %1, i64 8
  br label %4

._crit_edge:                                      ; preds = %29, %2
  ret void

4:                                                ; preds = %.lr.ph, %29
  %.02 = phi ptr [ %0, %.lr.ph ], [ %30, %29 ]
  %5 = getelementptr inbounds nuw i8, ptr %.02, i64 112
  %6 = load ptr, ptr %5, align 8, !tbaa !99
  %.not18 = icmp eq ptr %6, null
  br i1 %.not18, label %8, label %7

7:                                                ; preds = %4
  tail call fastcc void @block_get_unbound_vars(ptr nonnull %6, ptr noundef %1)
  br label %29

8:                                                ; preds = %4
  %9 = getelementptr inbounds nuw i8, ptr %.02, i64 16
  %10 = load i32, ptr %9, align 8, !tbaa !25
  switch i32 %10, label %29 [
    i32 8, label %11
    i32 41, label %11
  ]

11:                                               ; preds = %8, %8
  %12 = getelementptr inbounds nuw i8, ptr %.02, i64 80
  %13 = load ptr, ptr %12, align 8, !tbaa !33
  %14 = icmp eq ptr %13, null
  br i1 %14, label %15, label %29

15:                                               ; preds = %11
  %16 = getelementptr inbounds nuw i8, ptr %.02, i64 88
  %17 = load ptr, ptr %16, align 8, !tbaa !30
  %18 = tail call { i64, ptr } @jv_string(ptr noundef %17) #17
  %19 = extractvalue { i64, ptr } %18, 0
  %20 = extractvalue { i64, ptr } %18, 1
  %21 = tail call { i64, ptr } @jv_true() #17
  %22 = extractvalue { i64, ptr } %21, 0
  %23 = extractvalue { i64, ptr } %21, 1
  %24 = load i64, ptr %1, align 8
  %25 = load ptr, ptr %3, align 8
  %26 = tail call { i64, ptr } @jv_object_set(i64 %24, ptr %25, i64 %19, ptr %20, i64 %22, ptr %23) #17
  %27 = extractvalue { i64, ptr } %26, 0
  %28 = extractvalue { i64, ptr } %26, 1
  store i64 %27, ptr %1, align 8
  store ptr %28, ptr %3, align 8, !tbaa !29
  br label %29

29:                                               ; preds = %8, %11, %15, %7
  %30 = load ptr, ptr %.02, align 8, !tbaa !22
  %.not = icmp eq ptr %30, null
  br i1 %.not, label %._crit_edge, label %4, !llvm.loop !100
}